; Function Attrs: mustprogress uwtable
define dso_local void @_ZNK4pbrt19ParameterDictionary9GetOneRGBERKNSt7__cxx1112basic_stringIcSt11char_traitsIcESaIcEEE(ptr dead_on_unwind noalias writable writeonly sret(%"class.pstd::optional.79") align 4 captures(none) %0, ptr noundef nonnull readonly align 8 dereferenceable(108) %1, ptr noundef nonnull readonly align 8 captures(none) dereferenceable(32) %2) local_unnamed_addr #1 align 2 {
  %4 = getelementptr inbounds nuw i8, ptr %1, i64 8
  %5 = load ptr, ptr %4, align 8, !tbaa !9
  %.not.i = icmp eq ptr %5, null
  %6 = getelementptr inbounds nuw i8, ptr %1, i64 16
  %7 = select i1 %.not.i, ptr %6, ptr %5
  %8 = getelementptr inbounds nuw i8, ptr %1, i64 88
  %9 = load i64, ptr %8, align 8, !tbaa !15
  %10 = getelementptr inbounds nuw ptr, ptr %7, i64 %9
  %.not23 = icmp eq i64 %9, 0
  br i1 %.not23, label %._crit_edge, label %.lr.ph

.lr.ph:                                           ; preds = %3
  %11 = getelementptr inbounds nuw i8, ptr %2, i64 8
  br label %12

12:                                               ; preds = %.lr.ph, %_ZSteqIcEN9__gnu_cxx11__enable_ifIXsr9__is_charIT_EE7__valueEbE6__typeERKNSt7__cxx1112basic_stringIS2_St11char_traitsIS2_ESaIS2_EEESC_.exit.thread18
  %.024 = phi ptr [ %7, %.lr.ph ], [ %32, %_ZSteqIcEN9__gnu_cxx11__enable_ifIXsr9__is_charIT_EE7__valueEbE6__typeERKNSt7__cxx1112basic_stringIS2_St11char_traitsIS2_ESaIS2_EEESC_.exit.thread18 ]
  %13 = load ptr, ptr %.024, align 8, !tbaa !17
  %14 = getelementptr inbounds nuw i8, ptr %13, i64 32
  %15 = getelementptr inbounds nuw i8, ptr %13, i64 40
  %16 = load i64, ptr %15, align 8, !tbaa !33
  %17 = load i64, ptr %11, align 8, !tbaa !33
  %18 = icmp eq i64 %16, %17
  br i1 %18, label %19, label %_ZSteqIcEN9__gnu_cxx11__enable_ifIXsr9__is_charIT_EE7__valueEbE6__typeERKNSt7__cxx1112basic_stringIS2_St11char_traitsIS2_ESaIS2_EEESC_.exit.thread18

19:                                               ; preds = %12
  %20 = icmp eq i64 %16, 0
  br i1 %20, label %_ZSteqIcEN9__gnu_cxx11__enable_ifIXsr9__is_charIT_EE7__valueEbE6__typeERKNSt7__cxx1112basic_stringIS2_St11char_traitsIS2_ESaIS2_EEESC_.exit.thread, label %_ZSteqIcEN9__gnu_cxx11__enable_ifIXsr9__is_charIT_EE7__valueEbE6__typeERKNSt7__cxx1112basic_stringIS2_St11char_traitsIS2_ESaIS2_EEESC_.exit

_ZSteqIcEN9__gnu_cxx11__enable_ifIXsr9__is_charIT_EE7__valueEbE6__typeERKNSt7__cxx1112basic_stringIS2_St11char_traitsIS2_ESaIS2_EEESC_.exit: ; preds = %19
  %21 = load ptr, ptr %2, align 8, !tbaa !36
  %22 = load ptr, ptr %14, align 8, !tbaa !36
  %bcmp.i = tail call i32 @bcmp(ptr %22, ptr %21, i64 %16)
  %23 = icmp eq i32 %bcmp.i, 0
  br i1 %23, label %_ZSteqIcEN9__gnu_cxx11__enable_ifIXsr9__is_charIT_EE7__valueEbE6__typeERKNSt7__cxx1112basic_stringIS2_St11char_traitsIS2_ESaIS2_EEESC_.exit.thread, label %_ZSteqIcEN9__gnu_cxx11__enable_ifIXsr9__is_charIT_EE7__valueEbE6__typeERKNSt7__cxx1112basic_stringIS2_St11char_traitsIS2_ESaIS2_EEESC_.exit.thread18

_ZSteqIcEN9__gnu_cxx11__enable_ifIXsr9__is_charIT_EE7__valueEbE6__typeERKNSt7__cxx1112basic_stringIS2_St11char_traitsIS2_ESaIS2_EEESC_.exit.thread: ; preds = %19, %_ZSteqIcEN9__gnu_cxx11__enable_ifIXsr9__is_charIT_EE7__valueEbE6__typeERKNSt7__cxx1112basic_stringIS2_St11char_traitsIS2_ESaIS2_EEESC_.exit
  %24 = tail call noundef i32 @_ZNKSt7__cxx1112basic_stringIcSt11char_traitsIcESaIcEE7compareEPKc(ptr noundef nonnull align 8 dereferenceable(32) %13, ptr noundef nonnull @.str.5) #29
  %25 = icmp eq i32 %24, 0
  br i1 %25, label %26, label %_ZSteqIcEN9__gnu_cxx11__enable_ifIXsr9__is_charIT_EE7__valueEbE6__typeERKNSt7__cxx1112basic_stringIS2_St11char_traitsIS2_ESaIS2_EEESC_.exit.thread18

26:                                               ; preds = %_ZSteqIcEN9__gnu_cxx11__enable_ifIXsr9__is_charIT_EE7__valueEbE6__typeERKNSt7__cxx1112basic_stringIS2_St11char_traitsIS2_ESaIS2_EEESC_.exit.thread
  %27 = getelementptr inbounds nuw i8, ptr %13, i64 112
  %28 = load i64, ptr %27, align 8, !tbaa !44
  %29 = icmp ult i64 %28, 3
  br i1 %29, label %30, label %33

30:                                               ; preds = %26
  %31 = getelementptr inbounds nuw i8, ptr %13, i64 64
  tail call void @_ZN4pbrt9ErrorExitIJRKNSt7__cxx1112basic_stringIcSt11char_traitsIcESaIcEEEEEEvPKNS_7FileLocEPKcDpOT_(ptr noundef nonnull %31, ptr noundef nonnull @.str.21, ptr noundef nonnull align 8 dereferenceable(32) %14) #28
  unreachable

_ZSteqIcEN9__gnu_cxx11__enable_ifIXsr9__is_charIT_EE7__valueEbE6__typeERKNSt7__cxx1112basic_stringIS2_St11char_traitsIS2_ESaIS2_EEESC_.exit.thread18: ; preds = %12, %_ZSteqIcEN9__gnu_cxx11__enable_ifIXsr9__is_charIT_EE7__valueEbE6__typeERKNSt7__cxx1112basic_stringIS2_St11char_traitsIS2_ESaIS2_EEESC_.exit.thread, %_ZSteqIcEN9__gnu_cxx11__enable_ifIXsr9__is_charIT_EE7__valueEbE6__typeERKNSt7__cxx1112basic_stringIS2_St11char_traitsIS2_ESaIS2_EEESC_.exit
  %32 = getelementptr inbounds nuw i8, ptr %.024, i64 8
  %.not = icmp eq ptr %32, %10
  br i1 %.not, label %._crit_edge, label %12

33:                                               ; preds = %26
  %34 = getelementptr inbounds nuw i8, ptr %13, i64 96
  %35 = load ptr, ptr %34, align 8, !tbaa !73
  %36 = load float, ptr %35, align 4, !tbaa !74
  %37 = getelementptr inbounds nuw i8, ptr %35, i64 4
  %38 = load float, ptr %37, align 4, !tbaa !74
  %39 = getelementptr inbounds nuw i8, ptr %35, i64 8
  %40 = load float, ptr %39, align 4, !tbaa !74
  %41 = getelementptr inbounds nuw i8, ptr %0, i64 12
  store i8 1, ptr %41, align 4, !tbaa !289
  store float %36, ptr %0, align 4, !tbaa !74
  %.sroa.4.0..sroa_idx = getelementptr inbounds nuw i8, ptr %0, i64 4
  store float %38, ptr %.sroa.4.0..sroa_idx, align 4, !tbaa !74
  %.sroa.5.0..sroa_idx = getelementptr inbounds nuw i8, ptr %0, i64 8
  store float %40, ptr %.sroa.5.0..sroa_idx, align 4, !tbaa !74
  br label %42

._crit_edge:                                      ; preds = %_ZSteqIcEN9__gnu_cxx11__enable_ifIXsr9__is_charIT_EE7__valueEbE6__typeERKNSt7__cxx1112basic_stringIS2_St11char_traitsIS2_ESaIS2_EEESC_.exit.thread18, %3
  tail call void @llvm.memset.p0.i64(ptr noundef nonnull align 4 dereferenceable(16) %0, i8 0, i64 16, i1 false)
  br label %42

42:                                               ; preds = %33, %._crit_edge
  ret void
}